; Function Attrs: mustprogress nounwind uwtable
define noundef nonnull align 8 dereferenceable(39) ptr @_ZN18OpenImageIO_v2_6_010ParamValueaSERKS0_(ptr noundef nonnull returned align 8 dereferenceable(39) %this, ptr noundef nonnull align 8 dereferenceable(39) %p) local_unnamed_addr #3 align 2 personality ptr @__gxx_personality_v0 {
entry:
  %agg.tmp = alloca %"class.OpenImageIO_v2_6_0::ustring", align 8
  %agg.tmp2 = alloca %"struct.OpenImageIO_v2_6_0::TypeDesc", align 4
  %cmp.not = icmp eq ptr %this, %p
  br i1 %cmp.not, label %if.end, label %if.then

if.then:                                          ; preds = %entry
  %m_copy.i = getelementptr inbounds i8, ptr %this, i64 37
  %0 = load i8, ptr %m_copy.i, align 1
  %1 = and i8 %0, 1
  %tobool.not.i = icmp eq i8 %1, 0
  br i1 %tobool.not.i, label %invoke.cont8, label %land.lhs.true.i

land.lhs.true.i:                                  ; preds = %if.then
  %m_nonlocal.i = getelementptr inbounds i8, ptr %this, i64 38
  %2 = load i8, ptr %m_nonlocal.i, align 2
  %3 = and i8 %2, 1
  %tobool2.not.i = icmp eq i8 %3, 0
  br i1 %tobool2.not.i, label %invoke.cont8, label %land.lhs.true3.i

land.lhs.true3.i:                                 ; preds = %land.lhs.true.i
  %m_data.i = getelementptr inbounds i8, ptr %this, i64 16
  %4 = load ptr, ptr %m_data.i, align 8
  %tobool4.not.i = icmp eq ptr %4, null
  br i1 %tobool4.not.i, label %invoke.cont8, label %if.then.i

if.then.i:                                        ; preds = %land.lhs.true3.i
  tail call void @free(ptr noundef nonnull %4) #24
  br label %invoke.cont8

invoke.cont8:                                     ; preds = %if.then, %land.lhs.true.i, %land.lhs.true3.i, %if.then.i
  %m_data6.i = getelementptr inbounds i8, ptr %this, i64 16
  store ptr null, ptr %m_data6.i, align 8
  store i8 0, ptr %m_copy.i, align 1
  %m_nonlocal8.i = getelementptr inbounds i8, ptr %this, i64 38
  store i8 0, ptr %m_nonlocal8.i, align 2
  %5 = load ptr, ptr %p, align 8
  store ptr %5, ptr %agg.tmp, align 8
  tail call void @llvm.experimental.noalias.scope.decl(metadata !6)
  %m_type.i = getelementptr inbounds i8, ptr %p, i64 8
  %6 = load i8, ptr %m_type.i, align 8, !noalias !6
  store i8 %6, ptr %agg.tmp2, align 4, !alias.scope !6
  %aggregate.i.i = getelementptr inbounds i8, ptr %agg.tmp2, i64 1
  %aggregate3.i.i = getelementptr inbounds i8, ptr %p, i64 9
  %7 = load i8, ptr %aggregate3.i.i, align 1, !noalias !6
  store i8 %7, ptr %aggregate.i.i, align 1, !alias.scope !6
  %vecsemantics.i.i = getelementptr inbounds i8, ptr %agg.tmp2, i64 2
  %vecsemantics4.i.i = getelementptr inbounds i8, ptr %p, i64 10
  %8 = load i8, ptr %vecsemantics4.i.i, align 2, !noalias !6
  store i8 %8, ptr %vecsemantics.i.i, align 2, !alias.scope !6
  %reserved.i.i = getelementptr inbounds i8, ptr %agg.tmp2, i64 3
  store i8 0, ptr %reserved.i.i, align 1, !alias.scope !6
  %arraylen.i.i = getelementptr inbounds i8, ptr %agg.tmp2, i64 4
  %arraylen5.i.i = getelementptr inbounds i8, ptr %p, i64 12
  %9 = load i32, ptr %arraylen5.i.i, align 4, !noalias !6
  store i32 %9, ptr %arraylen.i.i, align 4, !alias.scope !6
  %m_nvalues.i = getelementptr inbounds i8, ptr %p, i64 32
  %10 = load i32, ptr %m_nvalues.i, align 8
  %m_interp.i = getelementptr inbounds i8, ptr %p, i64 36
  %11 = load i8, ptr %m_interp.i, align 4
  %conv.i = zext i8 %11 to i32
  %m_nonlocal.i7 = getelementptr inbounds i8, ptr %p, i64 38
  %12 = load i8, ptr %m_nonlocal.i7, align 2
  %13 = and i8 %12, 1
  %tobool.not.i8 = icmp eq i8 %13, 0
  %m_data.i9 = getelementptr inbounds i8, ptr %p, i64 16
  %14 = load ptr, ptr %m_data.i9, align 8
  %cond.i = select i1 %tobool.not.i8, ptr %m_data.i9, ptr %14
  %m_copy = getelementptr inbounds i8, ptr %p, i64 37
  %15 = load i8, ptr %m_copy, align 1
  %16 = and i8 %15, 1
  call void @_ZN18OpenImageIO_v2_6_010ParamValue12init_noclearENS_7ustringENS_8TypeDescEiNS0_6InterpEPKvNS0_4CopyENS0_11FromUstringE(ptr noundef nonnull align 8 dereferenceable(39) %this, ptr noundef nonnull %agg.tmp, ptr noundef nonnull %agg.tmp2, i32 noundef %10, i32 noundef %conv.i, ptr noundef %cond.i, i8 %16, i8 1) #24
  br label %if.end

if.end:                                           ; preds = %invoke.cont8, %entry
  ret ptr %this
}